target datalayout = "e-m:e-p270:32:32-p271:32:32-p272:64:64-i64:64-i128:128-f80:128-n8:16:32:64-S128"
target triple = "x86_64-pc-linux-gnu"

; Function Attrs: mustprogress nounwind uwtable
define internal void @_ZN19OpenColorIO_v2_5dev12_GLOBAL__N_115GetM44V4ProductEPfPKfS3_(ptr noundef %0, ptr noundef %1, ptr noundef %2) #7 {
  %4 = alloca ptr, align 8
  %5 = alloca ptr, align 8
  %6 = alloca ptr, align 8
  %7 = alloca [4 x float], align 16
  store ptr %0, ptr %4, align 8, !tbaa !15
  store ptr %1, ptr %5, align 8, !tbaa !15
  store ptr %2, ptr %6, align 8, !tbaa !15
  call void @llvm.lifetime.start.p0(i64 16, ptr %7) #3
  %8 = getelementptr inbounds [4 x float], ptr %7, i64 0, i64 0
  %9 = load ptr, ptr %6, align 8, !tbaa !15
  call void @llvm.memcpy.p0.p0.i64(ptr align 16 %8, ptr align 4 %9, i64 16, i1 false)
  %10 = load ptr, ptr %5, align 8, !tbaa !15
  %11 = getelementptr inbounds float, ptr %10, i64 0
  %12 = load float, ptr %11, align 4, !tbaa !3
  %13 = getelementptr inbounds [4 x float], ptr %7, i64 0, i64 0
  %14 = load float, ptr %13, align 16, !tbaa !3
  %15 = load ptr, ptr %5, align 8, !tbaa !15
  %16 = getelementptr inbounds float, ptr %15, i64 1
  %17 = load float, ptr %16, align 4, !tbaa !3
  %18 = getelementptr inbounds [4 x float], ptr %7, i64 0, i64 1
  %19 = load float, ptr %18, align 4, !tbaa !3
  %20 = fmul float %17, %19
  %21 = call float @llvm.fmuladd.f32(float %12, float %14, float %20)
  %22 = load ptr, ptr %5, align 8, !tbaa !15
  %23 = getelementptr inbounds float, ptr %22, i64 2
  %24 = load float, ptr %23, align 4, !tbaa !3
  %25 = getelementptr inbounds [4 x float], ptr %7, i64 0, i64 2
  %26 = load float, ptr %25, align 8, !tbaa !3
  %27 = call float @llvm.fmuladd.f32(float %24, float %26, float %21)
  %28 = load ptr, ptr %5, align 8, !tbaa !15
  %29 = getelementptr inbounds float, ptr %28, i64 3
  %30 = load float, ptr %29, align 4, !tbaa !3
  %31 = getelementptr inbounds [4 x float], ptr %7, i64 0, i64 3
  %32 = load float, ptr %31, align 4, !tbaa !3
  %33 = call float @llvm.fmuladd.f32(float %30, float %32, float %27)
  %34 = load ptr, ptr %4, align 8, !tbaa !15
  %35 = getelementptr inbounds float, ptr %34, i64 0
  store float %33, ptr %35, align 4, !tbaa !3
  %36 = load ptr, ptr %5, align 8, !tbaa !15
  %37 = getelementptr inbounds float, ptr %36, i64 4
  %38 = load float, ptr %37, align 4, !tbaa !3
  %39 = getelementptr inbounds [4 x float], ptr %7, i64 0, i64 0
  %40 = load float, ptr %39, align 16, !tbaa !3
  %41 = load ptr, ptr %5, align 8, !tbaa !15
  %42 = getelementptr inbounds float, ptr %41, i64 5
  %43 = load float, ptr %42, align 4, !tbaa !3
  %44 = getelementptr inbounds [4 x float], ptr %7, i64 0, i64 1
  %45 = load float, ptr %44, align 4, !tbaa !3
  %46 = fmul float %43, %45
  %47 = call float @llvm.fmuladd.f32(float %38, float %40, float %46)
  %48 = load ptr, ptr %5, align 8, !tbaa !15
  %49 = getelementptr inbounds float, ptr %48, i64 6
  %50 = load float, ptr %49, align 4, !tbaa !3
  %51 = getelementptr inbounds [4 x float], ptr %7, i64 0, i64 2
  %52 = load float, ptr %51, align 8, !tbaa !3
  %53 = call float @llvm.fmuladd.f32(float %50, float %52, float %47)
  %54 = load ptr, ptr %5, align 8, !tbaa !15
  %55 = getelementptr inbounds float, ptr %54, i64 7
  %56 = load float, ptr %55, align 4, !tbaa !3
  %57 = getelementptr inbounds [4 x float], ptr %7, i64 0, i64 3
  %58 = load float, ptr %57, align 4, !tbaa !3
  %59 = call float @llvm.fmuladd.f32(float %56, float %58, float %53)
  %60 = load ptr, ptr %4, align 8, !tbaa !15
  %61 = getelementptr inbounds float, ptr %60, i64 1
  store float %59, ptr %61, align 4, !tbaa !3
  %62 = load ptr, ptr %5, align 8, !tbaa !15
  %63 = getelementptr inbounds float, ptr %62, i64 8
  %64 = load float, ptr %63, align 4, !tbaa !3
  %65 = getelementptr inbounds [4 x float], ptr %7, i64 0, i64 0
  %66 = load float, ptr %65, align 16, !tbaa !3
  %67 = load ptr, ptr %5, align 8, !tbaa !15
  %68 = getelementptr inbounds float, ptr %67, i64 9
  %69 = load float, ptr %68, align 4, !tbaa !3
  %70 = getelementptr inbounds [4 x float], ptr %7, i64 0, i64 1
  %71 = load float, ptr %70, align 4, !tbaa !3
  %72 = fmul float %69, %71
  %73 = call float @llvm.fmuladd.f32(float %64, float %66, float %72)
  %74 = load ptr, ptr %5, align 8, !tbaa !15
  %75 = getelementptr inbounds float, ptr %74, i64 10
  %76 = load float, ptr %75, align 4, !tbaa !3
  %77 = getelementptr inbounds [4 x float], ptr %7, i64 0, i64 2
  %78 = load float, ptr %77, align 8, !tbaa !3
  %79 = call float @llvm.fmuladd.f32(float %76, float %78, float %73)
  %80 = load ptr, ptr %5, align 8, !tbaa !15
  %81 = getelementptr inbounds float, ptr %80, i64 11
  %82 = load float, ptr %81, align 4, !tbaa !3
  %83 = getelementptr inbounds [4 x float], ptr %7, i64 0, i64 3
  %84 = load float, ptr %83, align 4, !tbaa !3
  %85 = call float @llvm.fmuladd.f32(float %82, float %84, float %79)
  %86 = load ptr, ptr %4, align 8, !tbaa !15
  %87 = getelementptr inbounds float, ptr %86, i64 2
  store float %85, ptr %87, align 4, !tbaa !3
  %88 = load ptr, ptr %5, align 8, !tbaa !15
  %89 = getelementptr inbounds float, ptr %88, i64 12
  %90 = load float, ptr %89, align 4, !tbaa !3
  %91 = getelementptr inbounds [4 x float], ptr %7, i64 0, i64 0
  %92 = load float, ptr %91, align 16, !tbaa !3
  %93 = load ptr, ptr %5, align 8, !tbaa !15
  %94 = getelementptr inbounds float, ptr %93, i64 13
  %95 = load float, ptr %94, align 4, !tbaa !3
  %96 = getelementptr inbounds [4 x float], ptr %7, i64 0, i64 1
  %97 = load float, ptr %96, align 4, !tbaa !3
  %98 = fmul float %95, %97
  %99 = call float @llvm.fmuladd.f32(float %90, float %92, float %98)
  %100 = load ptr, ptr %5, align 8, !tbaa !15
  %101 = getelementptr inbounds float, ptr %100, i64 14
  %102 = load float, ptr %101, align 4, !tbaa !3
  %103 = getelementptr inbounds [4 x float], ptr %7, i64 0, i64 2
  %104 = load float, ptr %103, align 8, !tbaa !3
  %105 = call float @llvm.fmuladd.f32(float %102, float %104, float %99)
  %106 = load ptr, ptr %5, align 8, !tbaa !15
  %107 = getelementptr inbounds float, ptr %106, i64 15
  %108 = load float, ptr %107, align 4, !tbaa !3
  %109 = getelementptr inbounds [4 x float], ptr %7, i64 0, i64 3
  %110 = load float, ptr %109, align 4, !tbaa !3
  %111 = call float @llvm.fmuladd.f32(float %108, float %110, float %105)
  %112 = load ptr, ptr %4, align 8, !tbaa !15
  %113 = getelementptr inbounds float, ptr %112, i64 3
  store float %111, ptr %113, align 4, !tbaa !3
  call void @llvm.lifetime.end.p0(i64 16, ptr %7) #3
  ret void
}

; Function Attrs: mustprogress uwtable
define hidden noundef zeroext i1 @_ZN19OpenColorIO_v2_5dev13GetMxbInverseEPfS0_PKfS2_(ptr noundef %0, ptr noundef %1, ptr noundef %2, ptr noundef %3) #4 {
  %5 = alloca i1, align 1
  %6 = alloca ptr, align 8
  %7 = alloca ptr, align 8
  %8 = alloca ptr, align 8
  %9 = alloca ptr, align 8
  %10 = alloca [16 x float], align 16
  %11 = alloca [4 x float], align 16
  %12 = alloca i32, align 4
  %13 = alloca i32, align 4
  store ptr %0, ptr %6, align 8, !tbaa !15
  store ptr %1, ptr %7, align 8, !tbaa !15
  store ptr %2, ptr %8, align 8, !tbaa !15
  store ptr %3, ptr %9, align 8, !tbaa !15
  call void @llvm.lifetime.start.p0(i64 64, ptr %10) #3
  call void @llvm.lifetime.start.p0(i64 16, ptr %11) #3
  %14 = getelementptr inbounds [16 x float], ptr %10, i64 0, i64 0
  %15 = load ptr, ptr %8, align 8, !tbaa !15
  call void @llvm.memcpy.p0.p0.i64(ptr align 16 %14, ptr align 4 %15, i64 64, i1 false)
  %16 = getelementptr inbounds [4 x float], ptr %11, i64 0, i64 0
  %17 = load ptr, ptr %9, align 8, !tbaa !15
  call void @llvm.memcpy.p0.p0.i64(ptr align 16 %16, ptr align 4 %17, i64 16, i1 false)
  %18 = load ptr, ptr %6, align 8, !tbaa !15
  %19 = getelementptr inbounds [16 x float], ptr %10, i64 0, i64 0
  %20 = call noundef zeroext i1 @_ZN19OpenColorIO_v2_5dev13GetM44InverseEPfPKf(ptr noundef %18, ptr noundef %19)
  br i1 %20, label %22, label %21

21:                                               ; preds = %4
  store i1 false, ptr %5, align 1
  store i32 1, ptr %12, align 4
  br label %43

22:                                               ; preds = %4
  call void @llvm.lifetime.start.p0(i64 4, ptr %13) #3
  store i32 0, ptr %13, align 4, !tbaa !7
  br label %23

23:                                               ; preds = %36, %22
  %24 = load i32, ptr %13, align 4, !tbaa !7
  %25 = icmp slt i32 %24, 4
  br i1 %25, label %27, label %26

26:                                               ; preds = %23
  store i32 2, ptr %12, align 4
  call void @llvm.lifetime.end.p0(i64 4, ptr %13) #3
  br label %39

27:                                               ; preds = %23
  %28 = load i32, ptr %13, align 4, !tbaa !7
  %29 = sext i32 %28 to i64
  %30 = getelementptr inbounds [4 x float], ptr %11, i64 0, i64 %29
  %31 = load float, ptr %30, align 4, !tbaa !3
  %32 = fneg float %31
  %33 = load i32, ptr %13, align 4, !tbaa !7
  %34 = sext i32 %33 to i64
  %35 = getelementptr inbounds [4 x float], ptr %11, i64 0, i64 %34
  store float %32, ptr %35, align 4, !tbaa !3
  br label %36

36:                                               ; preds = %27
  %37 = load i32, ptr %13, align 4, !tbaa !7
  %38 = add nsw i32 %37, 1
  store i32 %38, ptr %13, align 4, !tbaa !7
  br label %23, !llvm.loop !41

39:                                               ; preds = %26
  %40 = load ptr, ptr %7, align 8, !tbaa !15
  %41 = load ptr, ptr %6, align 8, !tbaa !15
  %42 = getelementptr inbounds [4 x float], ptr %11, i64 0, i64 0
  call void @_ZN19OpenColorIO_v2_5dev12_GLOBAL__N_115GetM44V4ProductEPfPKfS3_(ptr noundef %40, ptr noundef %41, ptr noundef %42)
  store i1 true, ptr %5, align 1
  store i32 1, ptr %12, align 4
  br label %43

43:                                               ; preds = %39, %21
  call void @llvm.lifetime.end.p0(i64 16, ptr %11) #3
  call void @llvm.lifetime.end.p0(i64 64, ptr %10) #3
  %44 = load i1, ptr %5, align 1
  ret i1 %44
}