; Function Attrs: mustprogress nofree norecurse nosync nounwind memory(argmem: readwrite) uwtable
define hidden noundef zeroext i1 @_ZN19OpenColorIO_v2_5dev13GetMxbInverseEPfS0_PKfS2_(ptr noundef captures(none) %0, ptr noundef writeonly captures(none) %1, ptr noundef readonly captures(none) %2, ptr noundef readonly captures(none) %3) local_unnamed_addr #7 {
  %5 = alloca [16 x float], align 16
  %6 = alloca [4 x float], align 16
  call void @llvm.lifetime.start.p0(i64 64, ptr nonnull %5) #13
  call void @llvm.lifetime.start.p0(i64 16, ptr nonnull %6) #13
  call void @llvm.memcpy.p0.p0.i64(ptr noundef nonnull align 16 dereferenceable(64) %5, ptr noundef nonnull align 4 dereferenceable(64) %2, i64 64, i1 false)
  call void @llvm.memcpy.p0.p0.i64(ptr noundef nonnull align 16 dereferenceable(16) %6, ptr noundef nonnull align 4 dereferenceable(16) %3, i64 16, i1 false)
  %7 = call noundef zeroext i1 @_ZN19OpenColorIO_v2_5dev13GetM44InverseEPfPKf(ptr noundef %0, ptr noundef nonnull %5)
  br i1 %7, label %.preheader, label %62

8:                                                ; preds = %.preheader
  %.sroa.0.0.copyload.i = load float, ptr %6, align 16
  %.sroa.7.0..sroa_idx.i = getelementptr inbounds nuw i8, ptr %6, i64 4
  %.sroa.7.0.copyload.i = load float, ptr %.sroa.7.0..sroa_idx.i, align 4
  %.sroa.11.0..sroa_idx.i = getelementptr inbounds nuw i8, ptr %6, i64 8
  %.sroa.11.0.copyload.i = load float, ptr %.sroa.11.0..sroa_idx.i, align 8
  %.sroa.15.0..sroa_idx.i = getelementptr inbounds nuw i8, ptr %6, i64 12
  %.sroa.15.0.copyload.i = load float, ptr %.sroa.15.0..sroa_idx.i, align 4
  %9 = load float, ptr %0, align 4, !tbaa !5
  %10 = getelementptr inbounds nuw i8, ptr %0, i64 4
  %11 = load float, ptr %10, align 4, !tbaa !5
  %12 = fmul float %.sroa.7.0.copyload.i, %11
  %13 = tail call float @llvm.fmuladd.f32(float %9, float %.sroa.0.0.copyload.i, float %12)
  %14 = getelementptr inbounds nuw i8, ptr %0, i64 8
  %15 = load float, ptr %14, align 4, !tbaa !5
  %16 = tail call float @llvm.fmuladd.f32(float %15, float %.sroa.11.0.copyload.i, float %13)
  %17 = getelementptr inbounds nuw i8, ptr %0, i64 12
  %18 = load float, ptr %17, align 4, !tbaa !5
  %19 = tail call float @llvm.fmuladd.f32(float %18, float %.sroa.15.0.copyload.i, float %16)
  store float %19, ptr %1, align 4, !tbaa !5
  %20 = getelementptr inbounds nuw i8, ptr %0, i64 16
  %21 = load float, ptr %20, align 4, !tbaa !5
  %22 = getelementptr inbounds nuw i8, ptr %0, i64 20
  %23 = load float, ptr %22, align 4, !tbaa !5
  %24 = fmul float %.sroa.7.0.copyload.i, %23
  %25 = tail call float @llvm.fmuladd.f32(float %21, float %.sroa.0.0.copyload.i, float %24)
  %26 = getelementptr inbounds nuw i8, ptr %0, i64 24
  %27 = load float, ptr %26, align 4, !tbaa !5
  %28 = tail call float @llvm.fmuladd.f32(float %27, float %.sroa.11.0.copyload.i, float %25)
  %29 = getelementptr inbounds nuw i8, ptr %0, i64 28
  %30 = load float, ptr %29, align 4, !tbaa !5
  %31 = tail call float @llvm.fmuladd.f32(float %30, float %.sroa.15.0.copyload.i, float %28)
  %32 = getelementptr inbounds nuw i8, ptr %1, i64 4
  store float %31, ptr %32, align 4, !tbaa !5
  %33 = getelementptr inbounds nuw i8, ptr %0, i64 32
  %34 = load float, ptr %33, align 4, !tbaa !5
  %35 = getelementptr inbounds nuw i8, ptr %0, i64 36
  %36 = load float, ptr %35, align 4, !tbaa !5
  %37 = fmul float %.sroa.7.0.copyload.i, %36
  %38 = tail call float @llvm.fmuladd.f32(float %34, float %.sroa.0.0.copyload.i, float %37)
  %39 = getelementptr inbounds nuw i8, ptr %0, i64 40
  %40 = load float, ptr %39, align 4, !tbaa !5
  %41 = tail call float @llvm.fmuladd.f32(float %40, float %.sroa.11.0.copyload.i, float %38)
  %42 = getelementptr inbounds nuw i8, ptr %0, i64 44
  %43 = load float, ptr %42, align 4, !tbaa !5
  %44 = tail call float @llvm.fmuladd.f32(float %43, float %.sroa.15.0.copyload.i, float %41)
  %45 = getelementptr inbounds nuw i8, ptr %1, i64 8
  store float %44, ptr %45, align 4, !tbaa !5
  %46 = getelementptr inbounds nuw i8, ptr %0, i64 48
  %47 = load float, ptr %46, align 4, !tbaa !5
  %48 = getelementptr inbounds nuw i8, ptr %0, i64 52
  %49 = load float, ptr %48, align 4, !tbaa !5
  %50 = fmul float %.sroa.7.0.copyload.i, %49
  %51 = tail call float @llvm.fmuladd.f32(float %47, float %.sroa.0.0.copyload.i, float %50)
  %52 = getelementptr inbounds nuw i8, ptr %0, i64 56
  %53 = load float, ptr %52, align 4, !tbaa !5
  %54 = tail call float @llvm.fmuladd.f32(float %53, float %.sroa.11.0.copyload.i, float %51)
  %55 = getelementptr inbounds nuw i8, ptr %0, i64 60
  %56 = load float, ptr %55, align 4, !tbaa !5
  %57 = tail call float @llvm.fmuladd.f32(float %56, float %.sroa.15.0.copyload.i, float %54)
  %58 = getelementptr inbounds nuw i8, ptr %1, i64 12
  store float %57, ptr %58, align 4, !tbaa !5
  br label %62

.preheader:                                       ; preds = %4, %.preheader
  %indvars.iv = phi i64 [ %indvars.iv.next, %.preheader ], [ 0, %4 ]
  %59 = getelementptr inbounds nuw [4 x float], ptr %6, i64 0, i64 %indvars.iv
  %60 = load float, ptr %59, align 4, !tbaa !5
  %61 = fneg float %60
  store float %61, ptr %59, align 4, !tbaa !5
  %indvars.iv.next = add nuw nsw i64 %indvars.iv, 1
  %exitcond.not = icmp eq i64 %indvars.iv.next, 4
  br i1 %exitcond.not, label %8, label %.preheader, !llvm.loop !25

62:                                               ; preds = %4, %8
  call void @llvm.lifetime.end.p0(i64 16, ptr nonnull %6) #13
  call void @llvm.lifetime.end.p0(i64 64, ptr nonnull %5) #13
  ret i1 %7
}